target datalayout = "e-m:e-p270:32:32-p271:32:32-p272:64:64-i64:64-i128:128-f80:128-n8:16:32:64-S128"
target triple = "x86_64-pc-linux-gnu"

%struct.SDL_HIDAPI_Device = type { ptr, ptr, ptr, ptr, i16, i16, i16, ptr, %struct.SDL_GUID, i32, i32, i32, i32, i16, i16, i8, i32, i32, i32, ptr, ptr, ptr, ptr, %struct.SDL_AtomicInt, i32, ptr, i8, i8, i8, ptr, i32, ptr, ptr }
%struct.SDL_GUID = type { [16 x i8] }
%struct.SDL_AtomicInt = type { i32 }
%struct.SDL_Driver8BitDo_Context = type { i8, i8, i8, i8, i8, i8, i8, i8, i8, [6 x i8], i16, i16, float, float, [64 x i8], i64 }

@__const.HIDAPI_Driver8BitDo_RumbleJoystick.rumble_packet = private unnamed_addr constant [5 x i8] c"\05\00\00\00\00", align 1
@.str.5 = private unnamed_addr constant [28 x i8] c"Couldn't send rumble packet\00", align 1
@.str.6 = private unnamed_addr constant [32 x i8] c"That operation is not supported\00", align 1

; Function Attrs: nounwind uwtable
define internal zeroext i1 @HIDAPI_Driver8BitDo_RumbleJoystick(ptr noundef %0, ptr noundef %1, i16 noundef zeroext %2, i16 noundef zeroext %3) #0 {
  %5 = alloca i1, align 1
  %6 = alloca ptr, align 8
  %7 = alloca ptr, align 8
  %8 = alloca i16, align 2
  %9 = alloca i16, align 2
  %10 = alloca ptr, align 8
  %11 = alloca [5 x i8], align 1
  %12 = alloca i32, align 4
  store ptr %0, ptr %6, align 8
  store ptr %1, ptr %7, align 8
  store i16 %2, ptr %8, align 2
  store i16 %3, ptr %9, align 2
  call void @llvm.lifetime.start.p0(i64 8, ptr %10) #6
  %13 = load ptr, ptr %6, align 8
  %14 = getelementptr inbounds nuw %struct.SDL_HIDAPI_Device, ptr %13, i32 0, i32 20
  %15 = load ptr, ptr %14, align 8
  store ptr %15, ptr %10, align 8
  %16 = load ptr, ptr %10, align 8
  %17 = getelementptr inbounds nuw %struct.SDL_Driver8BitDo_Context, ptr %16, i32 0, i32 4
  %18 = load i8, ptr %17, align 4, !range !6, !noundef !7
  %19 = trunc i8 %18 to i1
  br i1 %19, label %20, label %40

20:                                               ; preds = %4
  call void @llvm.lifetime.start.p0(i64 5, ptr %11) #6
  call void @llvm.memcpy.p0.p0.i64(ptr align 1 %11, ptr align 1 @__const.HIDAPI_Driver8BitDo_RumbleJoystick.rumble_packet, i64 5, i1 false)
  %21 = load i16, ptr %8, align 2
  %22 = zext i16 %21 to i32
  %23 = ashr i32 %22, 8
  %24 = trunc i32 %23 to i8
  %25 = getelementptr inbounds [5 x i8], ptr %11, i64 0, i64 1
  store i8 %24, ptr %25, align 1
  %26 = load i16, ptr %9, align 2
  %27 = zext i16 %26 to i32
  %28 = ashr i32 %27, 8
  %29 = trunc i32 %28 to i8
  %30 = getelementptr inbounds [5 x i8], ptr %11, i64 0, i64 2
  store i8 %29, ptr %30, align 1
  %31 = load ptr, ptr %6, align 8
  %32 = getelementptr inbounds [5 x i8], ptr %11, i64 0, i64 0
  %33 = call i32 @SDL_HIDAPI_SendRumble(ptr noundef %31, ptr noundef %32, i32 noundef 5)
  %34 = sext i32 %33 to i64
  %35 = icmp ne i64 %34, 5
  br i1 %35, label %36, label %38

36:                                               ; preds = %20
  %37 = call zeroext i1 (ptr, ...) @SDL_SetError_REAL(ptr noundef @.str.5)
  store i1 %37, ptr %5, align 1
  store i32 1, ptr %12, align 4
  br label %39

38:                                               ; preds = %20
  store i1 true, ptr %5, align 1
  store i32 1, ptr %12, align 4
  br label %39

39:                                               ; preds = %38, %36
  call void @llvm.lifetime.end.p0(i64 5, ptr %11) #6
  br label %42

40:                                               ; preds = %4
  %41 = call zeroext i1 (ptr, ...) @SDL_SetError_REAL(ptr noundef @.str.6)
  store i1 %41, ptr %5, align 1
  store i32 1, ptr %12, align 4
  br label %42

42:                                               ; preds = %40, %39
  call void @llvm.lifetime.end.p0(i64 8, ptr %10) #6
  %43 = load i1, ptr %5, align 1
  ret i1 %43
}