; Function Attrs: nounwind uwtable
define internal zeroext i1 @HIDAPI_Driver8BitDo_RumbleJoystick(ptr noundef %0, ptr readnone captures(none) %1, i16 noundef zeroext %2, i16 noundef zeroext %3) #0 {
  %5 = alloca [5 x i8], align 1
  %6 = getelementptr inbounds nuw i8, ptr %0, i64 112
  %7 = load ptr, ptr %6, align 8
  %8 = getelementptr inbounds nuw i8, ptr %7, i64 4
  %9 = load i8, ptr %8, align 4, !range !6, !noundef !7
  %10 = trunc nuw i8 %9 to i1
  br i1 %10, label %11, label %22

11:                                               ; preds = %4
  call void @llvm.lifetime.start.p0(i64 5, ptr nonnull %5) #9
  call void @llvm.memcpy.p0.p0.i64(ptr noundef nonnull align 1 dereferenceable(5) %5, ptr noundef nonnull align 1 dereferenceable(5) @__const.HIDAPI_Driver8BitDo_RumbleJoystick.rumble_packet, i64 5, i1 false)
  %12 = lshr i16 %2, 8
  %13 = trunc nuw i16 %12 to i8
  %14 = getelementptr inbounds nuw i8, ptr %5, i64 1
  store i8 %13, ptr %14, align 1
  %15 = lshr i16 %3, 8
  %16 = trunc nuw i16 %15 to i8
  %17 = getelementptr inbounds nuw i8, ptr %5, i64 2
  store i8 %16, ptr %17, align 1
  %18 = call i32 @SDL_HIDAPI_SendRumble(ptr noundef nonnull %0, ptr noundef nonnull %5, i32 noundef 5) #9
  %.not = icmp eq i32 %18, 5
  br i1 %.not, label %21, label %19

19:                                               ; preds = %11
  %20 = call zeroext i1 (ptr, ...) @SDL_SetError_REAL(ptr noundef nonnull @.str.5) #9
  br label %21

21:                                               ; preds = %11, %19
  %.0 = phi i1 [ %20, %19 ], [ true, %11 ]
  call void @llvm.lifetime.end.p0(i64 5, ptr nonnull %5) #9
  br label %24

22:                                               ; preds = %4
  %23 = tail call zeroext i1 (ptr, ...) @SDL_SetError_REAL(ptr noundef nonnull @.str.6) #9
  br label %24

24:                                               ; preds = %22, %21
  %.1 = phi i1 [ %.0, %21 ], [ %23, %22 ]
  ret i1 %.1
}